target datalayout = "e-m:e-p270:32:32-p271:32:32-p272:64:64-i64:64-i128:128-f80:128-n8:16:32:64-S128"
target triple = "x86_64-pc-linux-gnu"

@.str.7 = private unnamed_addr constant [40 x i8] c"../openssl/test/namemap_internal_test.c\00", align 1
@.str.38 = private unnamed_addr constant [9 x i8] c"SHA2-512\00", align 1
@.str.39 = private unnamed_addr constant [8 x i8] c"fetched\00", align 1
@.str.40 = private unnamed_addr constant [31 x i8] c"EVP_MD_is_a(fetched, \22SHA512\22)\00", align 1
@.str.41 = private unnamed_addr constant [7 x i8] c"SHA512\00", align 1
@.str.42 = private unnamed_addr constant [29 x i8] c"EVP_MD_is_a(fetched, \22SHA1\22)\00", align 1
@.str.43 = private unnamed_addr constant [5 x i8] c"SHA1\00", align 1
@.str.44 = private unnamed_addr constant [38 x i8] c"EVP_MD_is_a(EVP_sha256(), \22SHA2-256\22)\00", align 1
@.str.45 = private unnamed_addr constant [9 x i8] c"SHA2-256\00", align 1
@.str.46 = private unnamed_addr constant [38 x i8] c"EVP_MD_is_a(EVP_sha256(), \22SHA3-256\22)\00", align 1
@.str.47 = private unnamed_addr constant [9 x i8] c"SHA3-256\00", align 1

; Function Attrs: nounwind uwtable
define internal i32 @test_digest_is_a() #0 {
  %1 = alloca i32, align 4
  %2 = alloca ptr, align 8
  %3 = alloca i32, align 4
  %4 = alloca i32, align 4
  call void @llvm.lifetime.start.p0(i64 8, ptr %2) #3
  %5 = call ptr @EVP_MD_fetch(ptr noundef null, ptr noundef @.str.38, ptr noundef null)
  store ptr %5, ptr %2, align 8, !tbaa !11
  call void @llvm.lifetime.start.p0(i64 4, ptr %3) #3
  store i32 1, ptr %3, align 4, !tbaa !9
  %6 = load ptr, ptr %2, align 8, !tbaa !11
  %7 = call i32 @test_ptr(ptr noundef @.str.7, i32 noundef 160, ptr noundef @.str.39, ptr noundef %6)
  %8 = icmp ne i32 %7, 0
  br i1 %8, label %10, label %9

9:                                                ; preds = %0
  store i32 0, ptr %1, align 4
  store i32 1, ptr %4, align 4
  br label %43

10:                                               ; preds = %0
  %11 = load ptr, ptr %2, align 8, !tbaa !11
  %12 = call i32 @EVP_MD_is_a(ptr noundef %11, ptr noundef @.str.41)
  %13 = icmp ne i32 %12, 0
  %14 = zext i1 %13 to i32
  %15 = call i32 @test_true(ptr noundef @.str.7, i32 noundef 162, ptr noundef @.str.40, i32 noundef %14)
  %16 = icmp ne i32 %15, 0
  br i1 %16, label %17, label %24

17:                                               ; preds = %10
  %18 = load ptr, ptr %2, align 8, !tbaa !11
  %19 = call i32 @EVP_MD_is_a(ptr noundef %18, ptr noundef @.str.43)
  %20 = icmp ne i32 %19, 0
  %21 = zext i1 %20 to i32
  %22 = call i32 @test_false(ptr noundef @.str.7, i32 noundef 163, ptr noundef @.str.42, i32 noundef %21)
  %23 = icmp ne i32 %22, 0
  br i1 %23, label %25, label %24

24:                                               ; preds = %17, %10
  store i32 0, ptr %3, align 4, !tbaa !9
  br label %25

25:                                               ; preds = %24, %17
  %26 = call ptr @EVP_sha256()
  %27 = call i32 @EVP_MD_is_a(ptr noundef %26, ptr noundef @.str.45)
  %28 = icmp ne i32 %27, 0
  %29 = zext i1 %28 to i32
  %30 = call i32 @test_true(ptr noundef @.str.7, i32 noundef 165, ptr noundef @.str.44, i32 noundef %29)
  %31 = icmp ne i32 %30, 0
  br i1 %31, label %32, label %39

32:                                               ; preds = %25
  %33 = call ptr @EVP_sha256()
  %34 = call i32 @EVP_MD_is_a(ptr noundef %33, ptr noundef @.str.47)
  %35 = icmp ne i32 %34, 0
  %36 = zext i1 %35 to i32
  %37 = call i32 @test_false(ptr noundef @.str.7, i32 noundef 166, ptr noundef @.str.46, i32 noundef %36)
  %38 = icmp ne i32 %37, 0
  br i1 %38, label %40, label %39

39:                                               ; preds = %32, %25
  store i32 0, ptr %3, align 4, !tbaa !9
  br label %40

40:                                               ; preds = %39, %32
  %41 = load ptr, ptr %2, align 8, !tbaa !11
  call void @EVP_MD_free(ptr noundef %41)
  %42 = load i32, ptr %3, align 4, !tbaa !9
  store i32 %42, ptr %1, align 4
  store i32 1, ptr %4, align 4
  br label %43

43:                                               ; preds = %40, %9
  call void @llvm.lifetime.end.p0(i64 4, ptr %3) #3
  call void @llvm.lifetime.end.p0(i64 8, ptr %2) #3
  %44 = load i32, ptr %1, align 4
  ret i32 %44
}