; Function Attrs: nounwind uwtable
define internal range(i32 0, 2) i32 @test_digest_is_a() #0 {
  %1 = tail call ptr @EVP_MD_fetch(ptr noundef null, ptr noundef nonnull @.str.38, ptr noundef null) #2
  %2 = tail call i32 @test_ptr(ptr noundef nonnull @.str.7, i32 noundef 160, ptr noundef nonnull @.str.39, ptr noundef %1) #2
  %.not = icmp eq i32 %2, 0
  br i1 %.not, label %28, label %3

3:                                                ; preds = %0
  %4 = tail call i32 @EVP_MD_is_a(ptr noundef %1, ptr noundef nonnull @.str.41) #2
  %5 = icmp ne i32 %4, 0
  %6 = zext i1 %5 to i32
  %7 = tail call i32 @test_true(ptr noundef nonnull @.str.7, i32 noundef 162, ptr noundef nonnull @.str.40, i32 noundef %6) #2
  %.not6 = icmp eq i32 %7, 0
  br i1 %.not6, label %13, label %8

8:                                                ; preds = %3
  %9 = tail call i32 @EVP_MD_is_a(ptr noundef %1, ptr noundef nonnull @.str.43) #2
  %10 = icmp ne i32 %9, 0
  %11 = zext i1 %10 to i32
  %12 = tail call i32 @test_false(ptr noundef nonnull @.str.7, i32 noundef 163, ptr noundef nonnull @.str.42, i32 noundef %11) #2
  %.not7 = icmp eq i32 %12, 0
  br i1 %.not7, label %13, label %14

13:                                               ; preds = %8, %3
  br label %14

14:                                               ; preds = %13, %8
  %.0 = phi i32 [ 1, %8 ], [ 0, %13 ]
  %15 = tail call ptr @EVP_sha256() #2
  %16 = tail call i32 @EVP_MD_is_a(ptr noundef %15, ptr noundef nonnull @.str.45) #2
  %17 = icmp ne i32 %16, 0
  %18 = zext i1 %17 to i32
  %19 = tail call i32 @test_true(ptr noundef nonnull @.str.7, i32 noundef 165, ptr noundef nonnull @.str.44, i32 noundef %18) #2
  %.not8 = icmp eq i32 %19, 0
  br i1 %.not8, label %26, label %20

20:                                               ; preds = %14
  %21 = tail call ptr @EVP_sha256() #2
  %22 = tail call i32 @EVP_MD_is_a(ptr noundef %21, ptr noundef nonnull @.str.47) #2
  %23 = icmp ne i32 %22, 0
  %24 = zext i1 %23 to i32
  %25 = tail call i32 @test_false(ptr noundef nonnull @.str.7, i32 noundef 166, ptr noundef nonnull @.str.46, i32 noundef %24) #2
  %.not9 = icmp eq i32 %25, 0
  br i1 %.not9, label %26, label %27

26:                                               ; preds = %20, %14
  br label %27

27:                                               ; preds = %26, %20
  %.1 = phi i32 [ %.0, %20 ], [ 0, %26 ]
  tail call void @EVP_MD_free(ptr noundef %1) #2
  br label %28

28:                                               ; preds = %0, %27
  %.05 = phi i32 [ %.1, %27 ], [ 0, %0 ]
  ret i32 %.05
}